; Function Attrs: mustprogress uwtable
define internal noundef ptr @"_ZNSt17_Function_handlerIFP25dependent_expr_simplifierR11ast_managerRK10params_refR20dependent_expr_stateEZL15mk_using_paramsR11cmd_contextP5sexprE3$_0E9_M_invokeERKSt9_Any_dataS3_S6_S8_"(ptr noundef nonnull readonly align 8 captures(none) dereferenceable(16) %0, ptr noundef nonnull align 8 dereferenceable(976) %1, ptr noundef nonnull align 8 dereferenceable(8) %2, ptr noundef nonnull align 8 dereferenceable(160) %3) #3 align 2 personality ptr @__gxx_personality_v0 {
  %5 = alloca %class.params_ref, align 8
  %.val = load ptr, ptr %0, align 8, !tbaa !47
  call void @llvm.lifetime.start.p0(i64 8, ptr nonnull %5) #24
  store ptr null, ptr %5, align 8, !tbaa !84
  invoke void @_ZN10params_ref4copyERKS_(ptr noundef nonnull align 8 dereferenceable(8) %5, ptr noundef nonnull align 8 dereferenceable(40) %.val)
          to label %_ZN10params_ref6appendERKS_.exit.i.i.i unwind label %14

_ZN10params_ref6appendERKS_.exit.i.i.i:           ; preds = %4
  invoke void @_ZN10params_ref4copyERKS_(ptr noundef nonnull align 8 dereferenceable(8) %5, ptr noundef nonnull align 8 dereferenceable(8) %2)
          to label %_ZN10params_ref6appendERKS_.exit5.i.i.i unwind label %14

_ZN10params_ref6appendERKS_.exit5.i.i.i:          ; preds = %_ZN10params_ref6appendERKS_.exit.i.i.i
  %6 = getelementptr inbounds nuw i8, ptr %.val, i64 24
  %7 = load ptr, ptr %6, align 8, !tbaa !12
  %.not.i.i.i.i.i = icmp eq ptr %7, null
  br i1 %.not.i.i.i.i.i, label %8, label %9

8:                                                ; preds = %_ZN10params_ref6appendERKS_.exit5.i.i.i
  invoke void @_ZSt25__throw_bad_function_callv() #26
          to label %.noexc.i.i.i unwind label %14

.noexc.i.i.i:                                     ; preds = %8
  unreachable

9:                                                ; preds = %_ZN10params_ref6appendERKS_.exit5.i.i.i
  %10 = getelementptr inbounds nuw i8, ptr %.val, i64 8
  %11 = getelementptr inbounds nuw i8, ptr %.val, i64 32
  %12 = load ptr, ptr %11, align 8, !tbaa !15
  %13 = invoke noundef ptr %12(ptr noundef nonnull align 8 dereferenceable(32) %10, ptr noundef nonnull align 8 dereferenceable(976) %1, ptr noundef nonnull align 8 dereferenceable(8) %5, ptr noundef nonnull align 8 dereferenceable(160) %3)
          to label %"_ZSt10__invoke_rIP25dependent_expr_simplifierRZL15mk_using_paramsR11cmd_contextP5sexprE3$_0JR11ast_managerRK10params_refR20dependent_expr_stateEENSt9enable_ifIX16is_invocable_r_vIT_T0_DpT1_EESG_E4typeEOSH_DpOSI_.exit" unwind label %14

14:                                               ; preds = %9, %8, %_ZN10params_ref6appendERKS_.exit.i.i.i, %4
  %15 = landingpad { ptr, i32 }
          cleanup
  call void @_ZN10params_refD1Ev(ptr noundef nonnull align 8 dereferenceable(8) %5) #24
  call void @llvm.lifetime.end.p0(i64 8, ptr nonnull %5) #24
  resume { ptr, i32 } %15

"_ZSt10__invoke_rIP25dependent_expr_simplifierRZL15mk_using_paramsR11cmd_contextP5sexprE3$_0JR11ast_managerRK10params_refR20dependent_expr_stateEENSt9enable_ifIX16is_invocable_r_vIT_T0_DpT1_EESG_E4typeEOSH_DpOSI_.exit": ; preds = %9
  call void @_ZN10params_refD1Ev(ptr noundef nonnull align 8 dereferenceable(8) %5) #24
  call void @llvm.lifetime.end.p0(i64 8, ptr nonnull %5) #24
  ret ptr %13
}